target datalayout = "e-m:e-p270:32:32-p271:32:32-p272:64:64-i64:64-i128:128-f80:128-n8:16:32:64-S128"
target triple = "x86_64-unknown-linux-gnu"

%"class.datalog::table_signature" = type <{ %"class.datalog::tr_infrastructure<datalog::table_traits>::signature_base", i32, [4 x i8] }>
%"class.datalog::tr_infrastructure<datalog::table_traits>::signature_base" = type { %class.svector.2 }
%class.svector.2 = type { %class.vector.3 }
%class.vector.3 = type { ptr }
%"class.datalog::tr_infrastructure<datalog::table_traits>::base_ancestor" = type <{ ptr, ptr, %"class.datalog::table_signature", i32, [4 x i8] }>
%class.symbol = type { ptr }
%"class.datalog::tr_infrastructure<datalog::table_traits>::plugin_object" = type { ptr, i32, %class.symbol, ptr }

; Function Attrs: mustprogress nounwind uwtable
define linkonce_odr hidden noundef i32 @_ZNK7datalog17tr_infrastructureINS_12table_traitsEE13plugin_object8get_kindEv(ptr noundef nonnull align 8 dereferenceable(32) %this) #5 comdat align 2 {
entry:
  %this.addr = alloca ptr, align 8
  store ptr %this, ptr %this.addr, align 8
  %this1 = load ptr, ptr %this.addr, align 8
  %m_kind = getelementptr inbounds %"class.datalog::tr_infrastructure<datalog::table_traits>::plugin_object", ptr %this1, i32 0, i32 1
  %0 = load i32, ptr %m_kind, align 8
  ret i32 %0
}

; Function Attrs: mustprogress nounwind uwtable
define linkonce_odr hidden noundef i32 @_ZNK7datalog17tr_infrastructureINS_12table_traitsEE13base_ancestor8get_kindEv(ptr noundef nonnull align 8 dereferenceable(36) %this) #5 comdat align 2 {
entry:
  %this.addr = alloca ptr, align 8
  store ptr %this, ptr %this.addr, align 8
  %this1 = load ptr, ptr %this.addr, align 8
  %m_kind = getelementptr inbounds %"class.datalog::tr_infrastructure<datalog::table_traits>::base_ancestor", ptr %this1, i32 0, i32 3
  %0 = load i32, ptr %m_kind, align 8
  ret i32 %0
}

; Function Attrs: mustprogress nounwind uwtable
define linkonce_odr hidden noundef nonnull align 8 dereferenceable(12) ptr @_ZNK7datalog17tr_infrastructureINS_12table_traitsEE13base_ancestor13get_signatureEv(ptr noundef nonnull align 8 dereferenceable(36) %this) #5 comdat align 2 {
entry:
  %this.addr = alloca ptr, align 8
  store ptr %this, ptr %this.addr, align 8
  %this1 = load ptr, ptr %this.addr, align 8
  %m_signature = getelementptr inbounds %"class.datalog::tr_infrastructure<datalog::table_traits>::base_ancestor", ptr %this1, i32 0, i32 2
  ret ptr %m_signature
}

; Function Attrs: mustprogress uwtable
define hidden noundef ptr @_ZN7datalog19sparse_table_plugin10mk_join_fnERKNS_10table_baseES3_jPKjS5_(ptr noundef nonnull align 8 dereferenceable(56) %this, ptr noundef nonnull align 8 dereferenceable(36) %t1, ptr noundef nonnull align 8 dereferenceable(36) %t2, i32 noundef %col_cnt, ptr noundef %cols1, ptr noundef %cols2) unnamed_addr #4 align 2 {
entry:
  %retval = alloca ptr, align 8
  %this.addr = alloca ptr, align 8
  %t1.addr = alloca ptr, align 8
  %t2.addr = alloca ptr, align 8
  %col_cnt.addr = alloca i32, align 4
  %cols1.addr = alloca ptr, align 8
  %cols2.addr = alloca ptr, align 8
  %sig1 = alloca ptr, align 8
  %sig2 = alloca ptr, align 8
  store ptr %this, ptr %this.addr, align 8
  store ptr %t1, ptr %t1.addr, align 8
  store ptr %t2, ptr %t2.addr, align 8
  store i32 %col_cnt, ptr %col_cnt.addr, align 4
  store ptr %cols1, ptr %cols1.addr, align 8
  store ptr %cols2, ptr %cols2.addr, align 8
  %this1 = load ptr, ptr %this.addr, align 8
  %0 = load ptr, ptr %t1.addr, align 8
  %call = call noundef nonnull align 8 dereferenceable(12) ptr @_ZNK7datalog17tr_infrastructureINS_12table_traitsEE13base_ancestor13get_signatureEv(ptr noundef nonnull align 8 dereferenceable(36) %0)
  store ptr %call, ptr %sig1, align 8
  %1 = load ptr, ptr %t2.addr, align 8
  %call2 = call noundef nonnull align 8 dereferenceable(12) ptr @_ZNK7datalog17tr_infrastructureINS_12table_traitsEE13base_ancestor13get_signatureEv(ptr noundef nonnull align 8 dereferenceable(36) %1)
  store ptr %call2, ptr %sig2, align 8
  %2 = load ptr, ptr %t1.addr, align 8
  %call3 = call noundef i32 @_ZNK7datalog17tr_infrastructureINS_12table_traitsEE13base_ancestor8get_kindEv(ptr noundef nonnull align 8 dereferenceable(36) %2)
  %call4 = call noundef i32 @_ZNK7datalog17tr_infrastructureINS_12table_traitsEE13plugin_object8get_kindEv(ptr noundef nonnull align 8 dereferenceable(32) %this1)
  %cmp = icmp ne i32 %call3, %call4
  br i1 %cmp, label %if.then, label %lor.lhs.false

lor.lhs.false:                                    ; preds = %entry
  %3 = load ptr, ptr %t2.addr, align 8
  %call5 = call noundef i32 @_ZNK7datalog17tr_infrastructureINS_12table_traitsEE13base_ancestor8get_kindEv(ptr noundef nonnull align 8 dereferenceable(36) %3)
  %call6 = call noundef i32 @_ZNK7datalog17tr_infrastructureINS_12table_traitsEE13plugin_object8get_kindEv(ptr noundef nonnull align 8 dereferenceable(32) %this1)
  %cmp7 = icmp ne i32 %call5, %call6
  br i1 %cmp7, label %if.then, label %lor.lhs.false8

lor.lhs.false8:                                   ; preds = %lor.lhs.false
  %4 = load ptr, ptr %sig1, align 8
  %5 = load ptr, ptr %sig2, align 8
  %6 = load i32, ptr %col_cnt.addr, align 4
  %7 = load ptr, ptr %cols1.addr, align 8
  %8 = load ptr, ptr %cols2.addr, align 8
  %call9 = call noundef zeroext i1 @_ZN7datalog19sparse_table_plugin24join_involves_functionalERKNS_15table_signatureES3_jPKjS5_(ptr noundef nonnull align 8 dereferenceable(12) %4, ptr noundef nonnull align 8 dereferenceable(12) %5, i32 noundef %6, ptr noundef %7, ptr noundef %8)
  br i1 %call9, label %if.then, label %if.end

if.then:                                          ; preds = %lor.lhs.false8, %lor.lhs.false, %entry
  store ptr null, ptr %retval, align 8
  br label %return

if.end:                                           ; preds = %lor.lhs.false8
  %9 = load ptr, ptr %t1.addr, align 8
  %10 = load ptr, ptr %t2.addr, align 8
  %11 = load i32, ptr %col_cnt.addr, align 4
  %12 = load ptr, ptr %cols1.addr, align 8
  %13 = load ptr, ptr %cols2.addr, align 8
  %vtable = load ptr, ptr %this1, align 8
  %vfn = getelementptr inbounds ptr, ptr %vtable, i64 12
  %14 = load ptr, ptr %vfn, align 8
  %call10 = call noundef ptr %14(ptr noundef nonnull align 8 dereferenceable(56) %this1, ptr noundef nonnull align 8 dereferenceable(36) %9, ptr noundef nonnull align 8 dereferenceable(36) %10, i32 noundef %11, ptr noundef %12, ptr noundef %13, i32 noundef 0, ptr noundef null)
  store ptr %call10, ptr %retval, align 8
  br label %return

return:                                           ; preds = %if.end, %if.then
  %15 = load ptr, ptr %retval, align 8
  ret ptr %15
}