; Function Attrs: mustprogress uwtable
define hidden noundef ptr @_ZN7datalog19sparse_table_plugin10mk_join_fnERKNS_10table_baseES3_jPKjS5_(ptr noundef nonnull align 8 dereferenceable(56) %this, ptr noundef nonnull align 8 dereferenceable(36) %t1, ptr noundef nonnull align 8 dereferenceable(36) %t2, i32 noundef %col_cnt, ptr noundef %cols1, ptr noundef %cols2) unnamed_addr #3 align 2 {
entry:
  %m_kind.i = getelementptr inbounds i8, ptr %t1, i64 32
  %0 = load i32, ptr %m_kind.i, align 8
  %m_kind.i9 = getelementptr inbounds i8, ptr %this, i64 8
  %1 = load i32, ptr %m_kind.i9, align 8
  %cmp.not = icmp eq i32 %0, %1
  %m_kind.i10 = getelementptr inbounds i8, ptr %t2, i64 32
  %2 = load i32, ptr %m_kind.i10, align 8
  %cmp7.not = icmp eq i32 %2, %1
  %or.cond = select i1 %cmp.not, i1 %cmp7.not, i1 false
  br i1 %or.cond, label %lor.lhs.false8, label %return

lor.lhs.false8:                                   ; preds = %entry
  %m_signature.i8 = getelementptr inbounds i8, ptr %t2, i64 16
  %m_signature.i = getelementptr inbounds i8, ptr %t1, i64 16
  %call9 = tail call noundef zeroext i1 @_ZN7datalog19sparse_table_plugin24join_involves_functionalERKNS_15table_signatureES3_jPKjS5_(ptr noundef nonnull align 8 dereferenceable(12) %m_signature.i, ptr noundef nonnull align 8 dereferenceable(12) %m_signature.i8, i32 noundef %col_cnt, ptr noundef %cols1, ptr noundef %cols2)
  br i1 %call9, label %return, label %if.end

if.end:                                           ; preds = %lor.lhs.false8
  %vtable = load ptr, ptr %this, align 8
  %vfn = getelementptr inbounds i8, ptr %vtable, i64 96
  %3 = load ptr, ptr %vfn, align 8
  %call10 = tail call noundef ptr %3(ptr noundef nonnull align 8 dereferenceable(56) %this, ptr noundef nonnull align 8 dereferenceable(36) %t1, ptr noundef nonnull align 8 dereferenceable(36) %t2, i32 noundef %col_cnt, ptr noundef %cols1, ptr noundef %cols2, i32 noundef 0, ptr noundef null)
  br label %return

return:                                           ; preds = %entry, %lor.lhs.false8, %if.end
  %retval.0 = phi ptr [ %call10, %if.end ], [ null, %lor.lhs.false8 ], [ null, %entry ]
  ret ptr %retval.0
}